; ModuleID = 'bench/linux/original/mon_stat.ll'
source_filename = "bench/linux/original/mon_stat.ll"
target datalayout = "e-m:e-p270:32:32-p271:32:32-p272:64:64-i64:64-i128:128-f80:128-n8:16:32:64-S128"
target triple = "x86_64-unknown-linux-gnu"

%struct.file_operations = type { ptr, ptr, ptr, ptr, ptr, ptr, ptr, ptr, ptr, ptr, ptr, ptr, i64, ptr, ptr, ptr, ptr, ptr, ptr, ptr, ptr, ptr, ptr, ptr, ptr, ptr, ptr, ptr, ptr, ptr, ptr, ptr, ptr }

@mon_fops_stat = dso_local local_unnamed_addr constant %struct.file_operations { ptr null, ptr null, ptr @mon_stat_read, ptr null, ptr null, ptr null, ptr null, ptr null, ptr null, ptr null, ptr null, ptr null, i64 0, ptr @mon_stat_open, ptr null, ptr @mon_stat_release, ptr null, ptr null, ptr null, ptr null, ptr null, ptr null, ptr null, ptr null, ptr null, ptr null, ptr null, ptr null, ptr null, ptr null, ptr null, ptr null, ptr null }, align 8
@.str = private unnamed_addr constant [36 x i8] c"nreaders %d events %u text_lost %u\0A\00", align 1
@kmalloc_caches = external dso_local local_unnamed_addr global [3 x [14 x ptr]], align 16

; Function Attrs: fn_ret_thunk_extern nounwind null_pointer_is_valid
define internal i64 @mon_stat_read(ptr nocapture noundef readonly %0, ptr noundef %1, i64 noundef %2, ptr noundef %3) #0 align 16 {
  %5 = getelementptr inbounds i8, ptr %0, i64 200
  %6 = load ptr, ptr %5, align 8
  %7 = getelementptr inbounds i8, ptr %6, i64 4
  %8 = load i32, ptr %6, align 4
  %9 = sext i32 %8 to i64
  %10 = tail call i64 @simple_read_from_buffer(ptr noundef %1, i64 noundef %2, ptr noundef %3, ptr noundef %7, i64 noundef %9) #3
  ret i64 %10
}

; Function Attrs: fn_ret_thunk_extern nounwind null_pointer_is_valid
define internal noundef i32 @mon_stat_open(ptr nocapture noundef readonly %0, ptr nocapture noundef writeonly %1) #0 align 16 {
  %3 = load ptr, ptr getelementptr inbounds ([3 x [14 x ptr]], ptr @kmalloc_caches, i64 0, i64 0, i64 1), align 8
  %4 = tail call noalias align 8 dereferenceable_or_null(84) ptr @kmalloc_trace(ptr noundef %3, i32 noundef 3264, i64 noundef 84) #4
  %5 = icmp eq ptr %4, null
  br i1 %5, label %18, label %6

6:                                                ; preds = %2
  %7 = getelementptr inbounds i8, ptr %0, i64 592
  %8 = load ptr, ptr %7, align 8
  %9 = getelementptr inbounds i8, ptr %4, i64 4
  %10 = getelementptr inbounds i8, ptr %8, i64 72
  %11 = load i32, ptr %10, align 8
  %12 = getelementptr inbounds i8, ptr %8, i64 100
  %13 = load i32, ptr %12, align 4
  %14 = getelementptr inbounds i8, ptr %8, i64 104
  %15 = load i32, ptr %14, align 8
  %16 = tail call i32 (ptr, i64, ptr, ...) @scnprintf(ptr noundef %9, i64 noundef 80, ptr noundef nonnull @.str, i32 noundef %11, i32 noundef %13, i32 noundef %15) #3
  store i32 %16, ptr %4, align 8
  %17 = getelementptr inbounds i8, ptr %1, i64 200
  store ptr %4, ptr %17, align 8
  br label %18

18:                                               ; preds = %6, %2
  %19 = phi i32 [ 0, %6 ], [ -12, %2 ]
  ret i32 %19
}

; Function Attrs: fn_ret_thunk_extern nounwind null_pointer_is_valid
define internal noundef i32 @mon_stat_release(ptr nocapture readnone %0, ptr nocapture noundef %1) #0 align 16 {
  %3 = getelementptr inbounds i8, ptr %1, i64 200
  %4 = load ptr, ptr %3, align 8
  store ptr null, ptr %3, align 8
  tail call void @kfree(ptr noundef %4) #3
  ret i32 0
}

; Function Attrs: null_pointer_is_valid
declare dso_local i64 @simple_read_from_buffer(ptr noundef, i64 noundef, ptr noundef, ptr noundef, i64 noundef) local_unnamed_addr #1

; Function Attrs: null_pointer_is_valid
declare dso_local i32 @scnprintf(ptr noundef, i64 noundef, ptr noundef, ...) local_unnamed_addr #1

; Function Attrs: null_pointer_is_valid allocsize(2)
declare dso_local noalias ptr @kmalloc_trace(ptr noundef, i32 noundef, i64 noundef) local_unnamed_addr #2

; Function Attrs: null_pointer_is_valid
declare dso_local void @kfree(ptr noundef) local_unnamed_addr #1


!llvm.module.flags = !{!0, !1, !2, !3, !4}

!0 = !{i32 1, !"wchar_size", i32 2}
!1 = !{i32 8, !"cf-protection-branch", i32 1}
!2 = !{i32 4, !"function_return_thunk_extern", i32 1}
!3 = !{i32 4, !"indirect_branch_cs_prefix", i32 1}
!4 = !{i32 4, !"SkipRaxSetup", i32 1}
